; Function Attrs: mustprogress nounwind uwtable
define dso_local noundef ptr @_ZNK5clang13CXXMethodDecl22end_overridden_methodsEv(ptr noundef nonnull align 8 dereferenceable(168) %0) local_unnamed_addr #1 align 2 {
  %2 = getelementptr inbounds nuw i8, ptr %0, i64 28
  %3 = load i32, ptr %2, align 4
  %4 = and i32 %3, 127
  %5 = icmp eq i32 %4, 35
  br i1 %5, label %9, label %6

6:                                                ; preds = %1
  %7 = tail call noundef nonnull align 8 dereferenceable(23096) ptr @_ZNK5clang4Decl13getASTContextEv(ptr noundef nonnull align 8 dereferenceable(33) %0) #26
  %8 = tail call noundef ptr @_ZNK5clang10ASTContext22overridden_methods_endEPKNS_13CXXMethodDeclE(ptr noundef nonnull align 8 dereferenceable(23096) %7, ptr noundef nonnull %0) #25
  br label %9

9:                                                ; preds = %1, %6
  %.0 = phi ptr [ %8, %6 ], [ null, %1 ]
  ret ptr %.0
}